target datalayout = "e-m:e-p270:32:32-p271:32:32-p272:64:64-i64:64-i128:128-f80:128-n8:16:32:64-S128"
target triple = "x86_64-pc-linux-gnu"

%struct.curl_trc_feat = type { ptr, i32 }
%struct.connectdata = type { %struct.Curl_llist_node, ptr, ptr, i64, ptr, i64, ptr, ptr, %struct.hostname, ptr, ptr, %struct.hostname, %struct.proxy_info, %struct.proxy_info, %struct.ip_quadruple, %struct.ip_quadruple, ptr, ptr, ptr, ptr, ptr, %struct.curltime, %struct.curltime, %struct.curltime, [2 x i32], [2 x ptr], [2 x ptr], [2 x ptr], %struct.anon, %struct.easy_pollset, %struct.ssl_primary_config, %struct.ssl_primary_config, %struct.ConnectBits, ptr, ptr, %struct.curltime, i32, i32, %struct.Curl_llist, i32, i32, %struct.ntlmdata, %struct.ntlmdata, %union.anon.1, ptr, ptr, i16, i32, i32, i32, i32, i16, i16, i8, i8, i8, i8, i8, i8, i8 }
%struct.Curl_llist_node = type { ptr, ptr, ptr, ptr }
%struct.hostname = type { ptr, ptr, ptr, ptr }
%struct.proxy_info = type { %struct.hostname, i32, i8, ptr, ptr }
%struct.ip_quadruple = type { [46 x i8], [46 x i8], i32, i32 }
%struct.anon = type { [2 x %struct.curltime], i32 }
%struct.easy_pollset = type { [5 x i32], i32, [5 x i8] }
%struct.ssl_primary_config = type { ptr, ptr, ptr, ptr, ptr, ptr, ptr, ptr, ptr, ptr, ptr, ptr, ptr, ptr, i8, i32, i8, i8 }
%struct.ConnectBits = type { i64 }
%struct.curltime = type { i64, i32 }
%struct.Curl_llist = type { ptr, ptr, ptr, i64 }
%struct.ntlmdata = type { i32, [8 x i8], i32, ptr }
%union.anon.1 = type { %struct.ftp_conn }
%struct.ftp_conn = type { %struct.pingpong, ptr, ptr, ptr, ptr, ptr, ptr, ptr, i8, i64, ptr, i64, i32, i32, i32, i32, i32, i16, i8, i8, i8, i8, i8 }
%struct.pingpong = type { i64, i8, ptr, i64, i64, %struct.curltime, i64, %struct.dynbuf, %struct.dynbuf, i64, i64, ptr, ptr }
%struct.dynbuf = type { ptr, i64, i64, i64 }
%struct.Curl_easy = type { i32, i64, i64, ptr, %struct.Curl_llist_node, %struct.Curl_llist_node, i32, i32, %struct.Curl_message, %struct.easy_pollset, %struct.Names, ptr, ptr, ptr, ptr, %struct.SingleRequest, %struct.UserDefined, ptr, ptr, ptr, %struct.Progress, %struct.UrlState, ptr, %struct.PureInfo, %struct.curl_tlssessioninfo }
%struct.Curl_message = type { %struct.Curl_llist_node, %struct.CURLMsg }
%struct.CURLMsg = type { i32, ptr, %union.anon }
%union.anon = type { ptr }
%struct.Names = type { ptr, i32 }
%struct.SingleRequest = type <{ i64, i64, i64, i64, %struct.curltime, i32, i32, i32, i32, i64, i32, i32, i8, i8, [2 x i8], i32, ptr, ptr, %struct.bufq, i64, i64, ptr, ptr, %union.anon.0, ptr, i8, i32, [3 x i8] }>
%struct.bufq = type { ptr, ptr, ptr, ptr, i64, i64, i64, i32 }
%union.anon.0 = type { ptr }
%struct.UserDefined = type <{ ptr, ptr, ptr, ptr, ptr, ptr, i64, i64, i64, ptr, ptr, i64, ptr, ptr, ptr, ptr, ptr, ptr, ptr, ptr, ptr, ptr, ptr, ptr, ptr, ptr, ptr, ptr, ptr, ptr, ptr, ptr, ptr, ptr, ptr, i64, i64, i64, i64, i64, i64, i64, i64, i64, ptr, ptr, %struct.curl_mimepart, ptr, ptr, ptr, i64, %struct.ssl_config_data, %struct.ssl_config_data, ptr, i16, i8, i8, %struct.ssl_general_config, i32, i32, i32, [4 x i8], ptr, ptr, i64, i32, i8, i8, i8, i8, ptr, ptr, ptr, i32, [4 x i8], [74 x ptr], [8 x ptr], i32, i32, i32, [4 x i8], ptr, i32, [4 x i8], ptr, ptr, ptr, ptr, ptr, i32, i32, i32, i32, i32, i32, i32, i32, i64, ptr, ptr, i64, ptr, i64, ptr, ptr, ptr, ptr, i32, i16, i16, i16, i8, i8, i8, i8, i8, i8, i8, i8, i64, [6 x i8] }>
%struct.curl_mimepart = type { ptr, ptr, i32, i32, ptr, ptr, ptr, ptr, ptr, ptr, ptr, ptr, ptr, ptr, ptr, i64, %struct.mime_state, ptr, %struct.mime_encoder_state, i64 }
%struct.mime_state = type { i32, ptr, i64 }
%struct.mime_encoder_state = type { i64, i64, i64, [256 x i8] }
%struct.ssl_config_data = type { %struct.ssl_primary_config, i64, ptr, ptr, ptr, ptr, ptr, ptr, ptr, i16 }
%struct.ssl_general_config = type { i32 }
%struct.Progress = type { i64, %struct.pgrs_dir, %struct.pgrs_dir, i64, i64, i32, i32, i64, i64, i64, i64, i64, i64, i64, i64, i64, %struct.curltime, %struct.curltime, %struct.curltime, %struct.curltime, %struct.curltime, [6 x i64], [6 x %struct.curltime], i32, i8 }
%struct.pgrs_dir = type { i64, i64, i64, %struct.pgrs_measure }
%struct.pgrs_measure = type { %struct.curltime, i64 }
%struct.UrlState = type { %struct.curltime, i64, i64, %struct.dynbuf, ptr, i64, ptr, i32, i32, i32, ptr, i32, i64, i32, ptr, %struct.digestdata, %struct.digestdata, %struct.auth, %struct.auth, %struct.Curl_async, ptr, i8, %struct.curltime, %struct.Curl_tree, %struct.Curl_llist, [15 x %struct.time_node], ptr, ptr, i64, i64, i64, i64, [32 x i8], i64, ptr, ptr, ptr, %struct.urlpieces, ptr, ptr, ptr, ptr, ptr, i64, %struct.dynbuf, %struct.Curl_llist, [2 x %struct.curl_header], ptr, i32, ptr, ptr, %struct.store_netrc, %struct.dynamically_allocated_data, i8, i8, i8, i8, i32 }
%struct.digestdata = type { ptr, ptr, ptr, ptr, ptr, ptr, i32, i8, i8 }
%struct.auth = type { i64, i64, i64, i8 }
%struct.Curl_async = type { ptr, ptr, ptr, ptr, i32, i32, i8 }
%struct.Curl_tree = type { ptr, ptr, ptr, ptr, %struct.curltime, ptr }
%struct.time_node = type { %struct.Curl_llist_node, %struct.curltime, i32 }
%struct.urlpieces = type { ptr, ptr, ptr, ptr, ptr, ptr, ptr, ptr }
%struct.curl_header = type { ptr, ptr, i64, i64, i32, ptr }
%struct.store_netrc = type { %struct.dynbuf, ptr, i8 }
%struct.dynamically_allocated_data = type { ptr, ptr, ptr, ptr, ptr, ptr, ptr, ptr, ptr, ptr, ptr, ptr, ptr, ptr }
%struct.PureInfo = type { i32, i32, i32, i64, i64, i64, i64, i64, i64, i64, ptr, ptr, i64, i32, %struct.ip_quadruple, i32, ptr, i32, %struct.curl_certinfo, i32, i8 }
%struct.curl_certinfo = type { i32, ptr }
%struct.curl_tlssessioninfo = type { i32, ptr }

@Curl_trc_feat_ftp = external global %struct.curl_trc_feat, align 8
@.str.7 = private unnamed_addr constant [13 x i8] c"[%s] -> [%s]\00", align 1
@.str.8 = private unnamed_addr constant [4 x i8] c"???\00", align 1
@.str.51 = private unnamed_addr constant [3 x i8] c"%s\00", align 1
@ftp_state_use_pasv.mode = internal constant [2 x [5 x i8]] [[5 x i8] c"EPSV\00", [5 x i8] c"PASV\00"], align 1
@.str.121 = private unnamed_addr constant [30 x i8] c"Connect data stream passively\00", align 1

; Function Attrs: nounwind uwtable
define internal void @_ftp_state(ptr noundef %0, i8 noundef zeroext %1) #0 {
  %3 = alloca ptr, align 8
  %4 = alloca i8, align 1
  %5 = alloca ptr, align 8
  %6 = alloca ptr, align 8
  store ptr %0, ptr %3, align 8, !tbaa !3
  store i8 %1, ptr %4, align 1, !tbaa !29
  call void @llvm.lifetime.start.p0(i64 8, ptr %5) #9
  %7 = load ptr, ptr %3, align 8, !tbaa !3
  %8 = getelementptr inbounds nuw %struct.Curl_easy, ptr %7, i32 0, i32 3
  %9 = load ptr, ptr %8, align 8, !tbaa !115
  store ptr %9, ptr %5, align 8, !tbaa !8
  call void @llvm.lifetime.start.p0(i64 8, ptr %6) #9
  %10 = load ptr, ptr %5, align 8, !tbaa !8
  %11 = getelementptr inbounds nuw %struct.connectdata, ptr %10, i32 0, i32 43
  store ptr %11, ptr %6, align 8, !tbaa !12
  %12 = load ptr, ptr %6, align 8, !tbaa !12
  %13 = getelementptr inbounds nuw %struct.ftp_conn, ptr %12, i32 0, i32 18
  %14 = load i8, ptr %13, align 2, !tbaa !147
  %15 = zext i8 %14 to i32
  %16 = load i8, ptr %4, align 1, !tbaa !29
  %17 = zext i8 %16 to i32
  %18 = icmp ne i32 %15, %17
  br i1 %18, label %19, label %78

19:                                               ; preds = %2
  br label %20

20:                                               ; preds = %19
  %21 = load ptr, ptr %3, align 8, !tbaa !3
  %22 = icmp ne ptr %21, null
  br i1 %22, label %23, label %75

23:                                               ; preds = %20
  %24 = load ptr, ptr %3, align 8, !tbaa !3
  %25 = getelementptr inbounds nuw %struct.Curl_easy, ptr %24, i32 0, i32 16
  %26 = getelementptr inbounds nuw %struct.UserDefined, ptr %25, i32 0, i32 119
  %27 = load i64, ptr %26, align 2
  %28 = lshr i64 %27, 31
  %29 = and i64 %28, 1
  %30 = trunc i64 %29 to i32
  %31 = icmp ne i32 %30, 0
  br i1 %31, label %32, label %75

32:                                               ; preds = %23
  %33 = load ptr, ptr %3, align 8, !tbaa !3
  %34 = getelementptr inbounds nuw %struct.Curl_easy, ptr %33, i32 0, i32 21
  %35 = getelementptr inbounds nuw %struct.UrlState, ptr %34, i32 0, i32 50
  %36 = load ptr, ptr %35, align 8, !tbaa !110
  %37 = icmp ne ptr %36, null
  br i1 %37, label %38, label %46

38:                                               ; preds = %32
  %39 = load ptr, ptr %3, align 8, !tbaa !3
  %40 = getelementptr inbounds nuw %struct.Curl_easy, ptr %39, i32 0, i32 21
  %41 = getelementptr inbounds nuw %struct.UrlState, ptr %40, i32 0, i32 50
  %42 = load ptr, ptr %41, align 8, !tbaa !110
  %43 = getelementptr inbounds nuw %struct.curl_trc_feat, ptr %42, i32 0, i32 1
  %44 = load i32, ptr %43, align 8, !tbaa !111
  %45 = icmp sge i32 %44, 1
  br i1 %45, label %46, label %75

46:                                               ; preds = %38, %32
  %47 = load i32, ptr getelementptr inbounds nuw (%struct.curl_trc_feat, ptr @Curl_trc_feat_ftp, i32 0, i32 1), align 8, !tbaa !111
  %48 = icmp sge i32 %47, 1
  br i1 %48, label %49, label %75

49:                                               ; preds = %46
  %50 = load ptr, ptr %3, align 8, !tbaa !3
  %51 = load ptr, ptr %3, align 8, !tbaa !3
  %52 = icmp ne ptr %51, null
  br i1 %52, label %53, label %68

53:                                               ; preds = %49
  %54 = load ptr, ptr %3, align 8, !tbaa !3
  %55 = getelementptr inbounds nuw %struct.Curl_easy, ptr %54, i32 0, i32 3
  %56 = load ptr, ptr %55, align 8, !tbaa !115
  %57 = icmp ne ptr %56, null
  br i1 %57, label %58, label %68

58:                                               ; preds = %53
  %59 = load ptr, ptr %3, align 8, !tbaa !3
  %60 = getelementptr inbounds nuw %struct.Curl_easy, ptr %59, i32 0, i32 3
  %61 = load ptr, ptr %60, align 8, !tbaa !115
  %62 = getelementptr inbounds nuw %struct.connectdata, ptr %61, i32 0, i32 43
  %63 = getelementptr inbounds nuw %struct.ftp_conn, ptr %62, i32 0, i32 18
  %64 = load i8, ptr %63, align 2, !tbaa !29
  %65 = zext i8 %64 to i64
  %66 = getelementptr inbounds nuw [35 x ptr], ptr @ftp_state_names, i64 0, i64 %65
  %67 = load ptr, ptr %66, align 8, !tbaa !17
  br label %69

68:                                               ; preds = %53, %49
  br label %69

69:                                               ; preds = %68, %58
  %70 = phi ptr [ %67, %58 ], [ @.str.8, %68 ]
  %71 = load i8, ptr %4, align 1, !tbaa !29
  %72 = zext i8 %71 to i64
  %73 = getelementptr inbounds nuw [35 x ptr], ptr @ftp_state_names, i64 0, i64 %72
  %74 = load ptr, ptr %73, align 8, !tbaa !17
  call void (ptr, ptr, ...) @Curl_trc_ftp(ptr noundef %50, ptr noundef @.str.7, ptr noundef %70, ptr noundef %74)
  br label %75

75:                                               ; preds = %69, %46, %38, %23, %20
  br label %76

76:                                               ; preds = %75
  br label %77

77:                                               ; preds = %76
  br label %78

78:                                               ; preds = %77, %2
  %79 = load i8, ptr %4, align 1, !tbaa !29
  %80 = load ptr, ptr %6, align 8, !tbaa !12
  %81 = getelementptr inbounds nuw %struct.ftp_conn, ptr %80, i32 0, i32 18
  store i8 %79, ptr %81, align 2, !tbaa !147
  call void @llvm.lifetime.end.p0(i64 8, ptr %6) #9
  call void @llvm.lifetime.end.p0(i64 8, ptr %5) #9
  ret void
}

; Function Attrs: nounwind uwtable
define internal i32 @ftp_state_use_pasv(ptr noundef %0, ptr noundef %1) #0 {
  %3 = alloca ptr, align 8
  %4 = alloca ptr, align 8
  %5 = alloca ptr, align 8
  %6 = alloca i32, align 4
  %7 = alloca i32, align 4
  store ptr %0, ptr %3, align 8, !tbaa !3
  store ptr %1, ptr %4, align 8, !tbaa !8
  call void @llvm.lifetime.start.p0(i64 8, ptr %5) #9
  %8 = load ptr, ptr %4, align 8, !tbaa !8
  %9 = getelementptr inbounds nuw %struct.connectdata, ptr %8, i32 0, i32 43
  store ptr %9, ptr %5, align 8, !tbaa !12
  call void @llvm.lifetime.start.p0(i64 4, ptr %6) #9
  store i32 0, ptr %6, align 4, !tbaa !10
  call void @llvm.lifetime.start.p0(i64 4, ptr %7) #9
  %10 = load ptr, ptr %4, align 8, !tbaa !8
  %11 = getelementptr inbounds nuw %struct.connectdata, ptr %10, i32 0, i32 32
  %12 = load i64, ptr %11, align 8
  %13 = lshr i64 %12, 15
  %14 = and i64 %13, 1
  %15 = trunc i64 %14 to i32
  %16 = icmp ne i32 %15, 0
  br i1 %16, label %31, label %17

17:                                               ; preds = %2
  %18 = load ptr, ptr %4, align 8, !tbaa !8
  %19 = getelementptr inbounds nuw %struct.connectdata, ptr %18, i32 0, i32 32
  %20 = load i64, ptr %19, align 8
  %21 = lshr i64 %20, 11
  %22 = and i64 %21, 1
  %23 = trunc i64 %22 to i32
  %24 = icmp ne i32 %23, 0
  br i1 %24, label %25, label %31

25:                                               ; preds = %17
  %26 = load ptr, ptr %4, align 8, !tbaa !8
  %27 = getelementptr inbounds nuw %struct.connectdata, ptr %26, i32 0, i32 32
  %28 = load i64, ptr %27, align 8
  %29 = and i64 %28, -32769
  %30 = or i64 %29, 32768
  store i64 %30, ptr %27, align 8
  br label %31

31:                                               ; preds = %25, %17, %2
  %32 = load ptr, ptr %4, align 8, !tbaa !8
  %33 = getelementptr inbounds nuw %struct.connectdata, ptr %32, i32 0, i32 32
  %34 = load i64, ptr %33, align 8
  %35 = lshr i64 %34, 15
  %36 = and i64 %35, 1
  %37 = trunc i64 %36 to i32
  %38 = icmp ne i32 %37, 0
  %39 = select i1 %38, i32 0, i32 1
  store i32 %39, ptr %7, align 4, !tbaa !10
  %40 = load ptr, ptr %3, align 8, !tbaa !3
  %41 = load ptr, ptr %5, align 8, !tbaa !12
  %42 = getelementptr inbounds nuw %struct.ftp_conn, ptr %41, i32 0, i32 0
  %43 = load i32, ptr %7, align 4, !tbaa !10
  %44 = sext i32 %43 to i64
  %45 = getelementptr inbounds [2 x [5 x i8]], ptr @ftp_state_use_pasv.mode, i64 0, i64 %44
  %46 = getelementptr inbounds [5 x i8], ptr %45, i64 0, i64 0
  %47 = call i32 (ptr, ptr, ptr, ...) @Curl_pp_sendf(ptr noundef %40, ptr noundef %42, ptr noundef @.str.51, ptr noundef %46)
  store i32 %47, ptr %6, align 4, !tbaa !10
  %48 = load i32, ptr %6, align 4, !tbaa !10
  %49 = icmp ne i32 %48, 0
  br i1 %49, label %86, label %50

50:                                               ; preds = %31
  %51 = load i32, ptr %7, align 4, !tbaa !10
  %52 = load ptr, ptr %5, align 8, !tbaa !12
  %53 = getelementptr inbounds nuw %struct.ftp_conn, ptr %52, i32 0, i32 14
  store i32 %51, ptr %53, align 8, !tbaa !146
  %54 = load ptr, ptr %3, align 8, !tbaa !3
  call void @_ftp_state(ptr noundef %54, i8 noundef zeroext 30)
  br label %55

55:                                               ; preds = %50
  %56 = load ptr, ptr %3, align 8, !tbaa !3
  %57 = icmp ne ptr %56, null
  br i1 %57, label %58, label %83

58:                                               ; preds = %55
  %59 = load ptr, ptr %3, align 8, !tbaa !3
  %60 = getelementptr inbounds nuw %struct.Curl_easy, ptr %59, i32 0, i32 16
  %61 = getelementptr inbounds nuw %struct.UserDefined, ptr %60, i32 0, i32 119
  %62 = load i64, ptr %61, align 2
  %63 = lshr i64 %62, 31
  %64 = and i64 %63, 1
  %65 = trunc i64 %64 to i32
  %66 = icmp ne i32 %65, 0
  br i1 %66, label %67, label %83

67:                                               ; preds = %58
  %68 = load ptr, ptr %3, align 8, !tbaa !3
  %69 = getelementptr inbounds nuw %struct.Curl_easy, ptr %68, i32 0, i32 21
  %70 = getelementptr inbounds nuw %struct.UrlState, ptr %69, i32 0, i32 50
  %71 = load ptr, ptr %70, align 8, !tbaa !110
  %72 = icmp ne ptr %71, null
  br i1 %72, label %73, label %81

73:                                               ; preds = %67
  %74 = load ptr, ptr %3, align 8, !tbaa !3
  %75 = getelementptr inbounds nuw %struct.Curl_easy, ptr %74, i32 0, i32 21
  %76 = getelementptr inbounds nuw %struct.UrlState, ptr %75, i32 0, i32 50
  %77 = load ptr, ptr %76, align 8, !tbaa !110
  %78 = getelementptr inbounds nuw %struct.curl_trc_feat, ptr %77, i32 0, i32 1
  %79 = load i32, ptr %78, align 8, !tbaa !111
  %80 = icmp sge i32 %79, 1
  br i1 %80, label %81, label %83

81:                                               ; preds = %73, %67
  %82 = load ptr, ptr %3, align 8, !tbaa !3
  call void (ptr, ptr, ...) @Curl_infof(ptr noundef %82, ptr noundef @.str.121)
  br label %83

83:                                               ; preds = %81, %73, %58, %55
  br label %84

84:                                               ; preds = %83
  br label %85

85:                                               ; preds = %84
  br label %86

86:                                               ; preds = %85, %31
  %87 = load i32, ptr %6, align 4, !tbaa !10
  call void @llvm.lifetime.end.p0(i64 4, ptr %7) #9
  call void @llvm.lifetime.end.p0(i64 4, ptr %6) #9
  call void @llvm.lifetime.end.p0(i64 8, ptr %5) #9
  ret i32 %87
}